EXPORTS 
	??_R0?AV?$_Iosb@H@std@@@8 	 DATA
	??_R0?AV?$basic_filebuf@DU?$char_traits@D@std@@@std@@@8 	 DATA
	??_R0?AV?$basic_ifstream@DU?$char_traits@D@std@@@std@@@8 	 DATA
	??_R0?AV?$basic_ios@DU?$char_traits@D@std@@@std@@@8 	 DATA
	??_R0?AV?$basic_istream@DU?$char_traits@D@std@@@std@@@8 	 DATA
	??_R0?AV?$basic_streambuf@DU?$char_traits@D@std@@@std@@@8 	 DATA
	??_R0?AVbad_alloc@std@@@8 	 DATA
	??_R0?AVbad_array_new_length@std@@@8 	 DATA
	??_R0?AVbad_cast@std@@@8 	 DATA
	??_R0?AVexception@std@@@8 	 DATA
	??_R0?AVios_base@std@@@8 	 DATA
	??_R0?AVruntime_error@std@@@8 	 DATA
	?_Psave@?$_Facetptr@V?$codecvt@DDU_Mbstatet@@@std@@@std@@2PEBVfacet@locale@2@EB 	 DATA
	?_Stinit@?1??_Init@?$basic_filebuf@DU?$char_traits@D@std@@@std@@IEAAXPEAU_iobuf@@W4_Initfl@23@@Z@4U_Mbstatet@@A 	 DATA
	??$?0$$V@?$_Compressed_pair@V?$allocator@D@std@@V?$_String_val@U?$_Simple_types@D@std@@@2@$00@std@@QEAA@U_Zero_then_variadic_args_t@1@@Z
	??$?0$$V@?$_Compressed_pair@V?$allocator@N@std@@V?$_Vector_val@U?$_Simple_types@N@std@@@2@$00@std@@QEAA@U_Zero_then_variadic_args_t@1@@Z
	??$?0$$V@?$_Compressed_pair@V?$allocator@VNode@pipenetwork@cie@@@std@@V?$_Vector_val@U?$_Simple_types@VNode@pipenetwork@cie@@@std@@@2@$00@std@@QEAA@U_Zero_then_variadic_args_t@1@@Z
	??$?0$$V@?$_Compressed_pair@V?$allocator@VTube@pipenetwork@cie@@@std@@V?$_Vector_val@U?$_Simple_types@VTube@pipenetwork@cie@@@std@@@2@$00@std@@QEAA@U_Zero_then_variadic_args_t@1@@Z
	??$?0AEAPEAV_Facet_base@std@@@?$_Compressed_pair@U?$default_delete@V_Facet_base@std@@@std@@PEAV_Facet_base@2@$00@std@@QEAA@U_Zero_then_variadic_args_t@1@AEAPEAV_Facet_base@1@@Z
	??$?0AEBV?$allocator@N@std@@$$V@?$_Compressed_pair@V?$allocator@N@std@@V?$_Vector_val@U?$_Simple_types@N@std@@@2@$00@std@@QEAA@U_One_then_variadic_args_t@1@AEBV?$allocator@N@1@@Z
	??$?0AEBV?$allocator@_K@std@@$$V@?$_Compressed_pair@V?$allocator@_K@std@@V?$_Vector_val@U?$_Simple_types@_K@std@@@2@$00@std@@QEAA@U_One_then_variadic_args_t@1@AEBV?$allocator@_K@1@@Z
	??$?0D@?$allocator@U_Container_proxy@std@@@std@@QEAA@AEBV?$allocator@D@1@@Z
	??$?0N@?$allocator@U_Container_proxy@std@@@std@@QEAA@AEBV?$allocator@N@1@@Z
	??$?0U?$default_delete@V_Facet_base@std@@@std@@$0A@@?$unique_ptr@V_Facet_base@std@@U?$default_delete@V_Facet_base@std@@@2@@std@@QEAA@PEAV_Facet_base@1@@Z
	??$?0V?$allocator@N@std@@$$V@?$_Compressed_pair@V?$allocator@N@std@@V?$_Vector_val@U?$_Simple_types@N@std@@@2@$00@std@@QEAA@U_One_then_variadic_args_t@1@$$QEAV?$allocator@N@1@@Z
	??$?0V?$allocator@N@std@@PEANPEANPEAN@?$_Compressed_pair@V?$allocator@N@std@@V?$_Vector_val@U?$_Simple_types@N@std@@@2@$00@std@@QEAA@U_One_then_variadic_args_t@1@$$QEAV?$allocator@N@1@$$QEAPEAN22@Z
	??$?0VNode@pipenetwork@cie@@@?$allocator@U_Container_proxy@std@@@std@@QEAA@AEBV?$allocator@VNode@pipenetwork@cie@@@1@@Z
	??$?0VTube@pipenetwork@cie@@@?$allocator@U_Container_proxy@std@@@std@@QEAA@AEBV?$allocator@VTube@pipenetwork@cie@@@1@@Z
	??$?0_K@?$allocator@U_Container_proxy@std@@@std@@QEAA@AEBV?$allocator@_K@1@@Z
	??$?6DU?$char_traits@D@std@@@std@@YAAEAV?$basic_ostream@DU?$char_traits@D@std@@@0@AEAV10@AEBU?$_Smanip@_J@0@@Z
	??$?6U?$char_traits@D@std@@@std@@YAAEAV?$basic_ostream@DU?$char_traits@D@std@@@0@AEAV10@PEBD@Z
	??$?RAEANN@?$plus@X@std@@QEBANAEAN$$QEAN@Z
	??$?RAEBNAEBN@?$multiplies@X@std@@QEBANAEBN0@Z
	??$_Adl_verify_range@V?$_Vector_const_iterator@V?$_Vector_val@U?$_Simple_types@N@std@@@std@@@std@@V12@@std@@YAXAEBV?$_Vector_const_iterator@V?$_Vector_val@U?$_Simple_types@N@std@@@std@@@0@0@Z
	??$_Adl_verify_range@V?$_Vector_iterator@V?$_Vector_val@U?$_Simple_types@N@std@@@std@@@std@@V12@@std@@YAXAEBV?$_Vector_iterator@V?$_Vector_val@U?$_Simple_types@N@std@@@std@@@0@0@Z
	??$_Adl_verify_range@V?$_Vector_iterator@V?$_Vector_val@U?$_Simple_types@_K@std@@@std@@@std@@V12@@std@@YAXAEBV?$_Vector_iterator@V?$_Vector_val@U?$_Simple_types@_K@std@@@std@@@0@0@Z
	??$_Alloc_proxy@V?$allocator@U_Container_proxy@std@@@std@@@_Container_base12@std@@QEAAX$$QEAV?$allocator@U_Container_proxy@std@@@1@@Z
	??$_Allocate@$0BA@U_Default_allocate_traits@std@@$0A@@std@@YAPEAX_K@Z
	??$_Allocate_manually_vector_aligned@U_Default_allocate_traits@std@@@std@@YAPEAX_K@Z
	??$_Construct_in_place@NAEBN@std@@YAXAEANAEBN@Z
	??$_Construct_in_place@PEADAEBQEAD@std@@YAXAEAPEADAEBQEAD@Z
	??$_Construct_in_place@U_Container_proxy@std@@PEAU_Container_base12@2@@std@@YAXAEAU_Container_proxy@0@$$QEAPEAU_Container_base12@0@@Z
	??$_Construct_in_place@VNode@pipenetwork@cie@@V123@@std@@YAXAEAVNode@pipenetwork@cie@@$$QEAV123@@Z
	??$_Construct_in_place@VTube@pipenetwork@cie@@V123@@std@@YAXAEAVTube@pipenetwork@cie@@$$QEAV123@@Z
	??$_Construct_n@$$V@?$vector@NV?$allocator@N@std@@@std@@AEAAX_K@Z
	??$_Construct_n@$$V@?$vector@_KV?$allocator@_K@std@@@std@@AEAAX_K@Z
	??$_Construct_n@AEBN@?$vector@NV?$allocator@N@std@@@std@@AEAAX_KAEBN@Z
	??$_Construct_n@AEBQEANAEBQEAN@?$vector@NV?$allocator@N@std@@@std@@AEAAX_KAEBQEAN1@Z
	??$_Copy_memmove@PEANPEAN@std@@YAPEANPEAN00@Z
	??$_Copy_memmove@PEAVNode@pipenetwork@cie@@PEAV123@@std@@YAPEAVNode@pipenetwork@cie@@PEAV123@00@Z
	??$_Copy_memmove@PEAVTube@pipenetwork@cie@@PEAV123@@std@@YAPEAVTube@pipenetwork@cie@@PEAV123@00@Z
	??$_Copy_memmove@PEBNPEAN@std@@YAPEANPEBN0PEAN@Z
	??$_Copy_unchecked@PEBNPEBNPEAN@std@@YAPEANPEBN0PEAN@Z
	??$_Deallocate@$0BA@$0A@@std@@YAXPEAX_K@Z
	??$_Deallocate_plain@V?$allocator@U_Container_proxy@std@@@std@@@std@@YAXAEAV?$allocator@U_Container_proxy@std@@@0@QEAU_Container_proxy@0@@Z
	??$_Delete_plain_internal@V?$allocator@U_Container_proxy@std@@@std@@@std@@YAXAEAV?$allocator@U_Container_proxy@std@@@0@QEAU_Container_proxy@0@@Z
	??$_Destroy_in_place@PEAD@std@@YAXAEAPEAD@Z
	??$_Destroy_range@V?$allocator@N@std@@@std@@YAXPEANQEANAEAV?$allocator@N@0@@Z
	??$_Destroy_range@V?$allocator@VNode@pipenetwork@cie@@@std@@@std@@YAXPEAVNode@pipenetwork@cie@@QEAV123@AEAV?$allocator@VNode@pipenetwork@cie@@@0@@Z
	??$_Destroy_range@V?$allocator@VTube@pipenetwork@cie@@@std@@@std@@YAXPEAVTube@pipenetwork@cie@@QEAV123@AEAV?$allocator@VTube@pipenetwork@cie@@@0@@Z
	??$_Destroy_range@V?$allocator@_K@std@@@std@@YAXPEA_KQEA_KAEAV?$allocator@_K@0@@Z
	??$_Emplace_back@$$V@?$_Uninitialized_backout_al@V?$allocator@N@std@@@std@@QEAAXXZ
	??$_Emplace_back@$$V@?$_Uninitialized_backout_al@V?$allocator@_K@std@@@std@@QEAAXXZ
	??$_Emplace_back@AEAN@?$_Uninitialized_backout_al@V?$allocator@N@std@@@std@@QEAAXAEAN@Z
	??$_Emplace_back@AEBN@?$_Uninitialized_backout_al@V?$allocator@N@std@@@std@@QEAAXAEBN@Z
	??$_Emplace_back@N@?$_Uninitialized_backout_al@V?$allocator@N@std@@@std@@QEAAX$$QEAN@Z
	??$_Emplace_back@VNode@pipenetwork@cie@@@?$_Uninitialized_backout_al@V?$allocator@VNode@pipenetwork@cie@@@std@@@std@@QEAAX$$QEAVNode@pipenetwork@cie@@@Z
	??$_Emplace_back@VTube@pipenetwork@cie@@@?$_Uninitialized_backout_al@V?$allocator@VTube@pipenetwork@cie@@@std@@@std@@QEAAX$$QEAVTube@pipenetwork@cie@@@Z
	??$_Emplace_back_with_unused_capacity@AEBN@?$vector@NV?$allocator@N@std@@@std@@AEAAAEANAEBN@Z
	??$_Emplace_back_with_unused_capacity@VNode@pipenetwork@cie@@@?$vector@VNode@pipenetwork@cie@@V?$allocator@VNode@pipenetwork@cie@@@std@@@std@@AEAAAEAVNode@pipenetwork@cie@@$$QEAV234@@Z
	??$_Emplace_back_with_unused_capacity@VTube@pipenetwork@cie@@@?$vector@VTube@pipenetwork@cie@@V?$allocator@VTube@pipenetwork@cie@@@std@@@std@@AEAAAEAVTube@pipenetwork@cie@@$$QEAV234@@Z
	??$_Emplace_one_at_back@AEBN@?$vector@NV?$allocator@N@std@@@std@@AEAAAEANAEBN@Z
	??$_Emplace_one_at_back@VNode@pipenetwork@cie@@@?$vector@VNode@pipenetwork@cie@@V?$allocator@VNode@pipenetwork@cie@@@std@@@std@@AEAAAEAVNode@pipenetwork@cie@@$$QEAV234@@Z
	??$_Emplace_one_at_back@VTube@pipenetwork@cie@@@?$vector@VTube@pipenetwork@cie@@V?$allocator@VTube@pipenetwork@cie@@@std@@@std@@AEAAAEAVTube@pipenetwork@cie@@$$QEAV234@@Z
	??$_Emplace_reallocate@AEBN@?$vector@NV?$allocator@N@std@@@std@@AEAAPEANQEANAEBN@Z
	??$_Emplace_reallocate@VNode@pipenetwork@cie@@@?$vector@VNode@pipenetwork@cie@@V?$allocator@VNode@pipenetwork@cie@@@std@@@std@@AEAAPEAVNode@pipenetwork@cie@@QEAV234@$$QEAV234@@Z
	??$_Emplace_reallocate@VTube@pipenetwork@cie@@@?$vector@VTube@pipenetwork@cie@@V?$allocator@VTube@pipenetwork@cie@@@std@@@std@@AEAAPEAVTube@pipenetwork@cie@@QEAV234@$$QEAV234@@Z
	??$_Fgetc@D@std@@YA_NAEADPEAU_iobuf@@@Z
	??$_Fill_zero_memset@PEAN@std@@YAXPEAN_K@Z
	??$_Fputc@D@std@@YA_NDPEAU_iobuf@@@Z
	??$_Get_size_of_n@$00@std@@YA_K_K@Z
	??$_Get_size_of_n@$07@std@@YA_K_K@Z
	??$_Get_size_of_n@$0BA@@std@@YA_K_K@Z
	??$_Get_size_of_n@$0BI@@std@@YA_K_K@Z
	??$_Get_size_of_n@$0CA@@std@@YA_K_K@Z
	??$_Get_unwrapped@AEAV?$_Vector_const_iterator@V?$_Vector_val@U?$_Simple_types@N@std@@@std@@@std@@@std@@YA?A_TAEAV?$_Vector_const_iterator@V?$_Vector_val@U?$_Simple_types@N@std@@@std@@@0@@Z
	??$_Get_unwrapped@AEAV?$_Vector_iterator@V?$_Vector_val@U?$_Simple_types@_K@std@@@std@@@std@@@std@@YA?A_TAEAV?$_Vector_iterator@V?$_Vector_val@U?$_Simple_types@_K@std@@@std@@@0@@Z
	??$_Get_unwrapped@AEBQEAN@std@@YA?A_TAEBQEAN@Z
	??$_Get_unwrapped@AEBQEAVNode@pipenetwork@cie@@@std@@YA?A_TAEBQEAVNode@pipenetwork@cie@@@Z
	??$_Get_unwrapped@AEBQEAVTube@pipenetwork@cie@@@std@@YA?A_TAEBQEAVTube@pipenetwork@cie@@@Z
	??$_Get_unwrapped@AEBV?$_Vector_iterator@V?$_Vector_val@U?$_Simple_types@N@std@@@std@@@std@@@std@@YA?A_TAEBV?$_Vector_iterator@V?$_Vector_val@U?$_Simple_types@N@std@@@std@@@0@@Z
	??$_Get_unwrapped@AEBV?$_Vector_iterator@V?$_Vector_val@U?$_Simple_types@_K@std@@@std@@@std@@@std@@YA?A_TAEBV?$_Vector_iterator@V?$_Vector_val@U?$_Simple_types@_K@std@@@std@@@0@@Z
	??$_Get_unwrapped@PEAN@std@@YA?A_T$$QEAPEAN@Z
	??$_Get_unwrapped_n@AEAV?$_Vector_const_iterator@V?$_Vector_val@U?$_Simple_types@N@std@@@std@@@std@@_J@std@@YA?A_TAEAV?$_Vector_const_iterator@V?$_Vector_val@U?$_Simple_types@N@std@@@std@@@0@_J@Z
	??$_Get_unwrapped_n@AEAV?$_Vector_iterator@V?$_Vector_val@U?$_Simple_types@N@std@@@std@@@std@@_J@std@@YA?A_TAEAV?$_Vector_iterator@V?$_Vector_val@U?$_Simple_types@N@std@@@std@@@0@_J@Z
	??$_Getvals@_W@?$time_get@DV?$istreambuf_iterator@DU?$char_traits@D@std@@@std@@@std@@IEAAX_WAEBV_Locinfo@1@@Z
	??$_Getvals@_W@?$time_get@_WV?$istreambuf_iterator@_WU?$char_traits@_W@std@@@std@@@std@@IEAAX_WAEBV_Locinfo@1@@Z
	??$_Idl_distance@V?$_Vector_const_iterator@V?$_Vector_val@U?$_Simple_types@N@std@@@std@@@std@@PEBN@std@@YA?A_PAEBQEBN0@Z
	??$_Idl_distance@V?$_Vector_iterator@V?$_Vector_val@U?$_Simple_types@_K@std@@@std@@@std@@PEA_K@std@@YA?A_PAEBQEA_K0@Z
	??$_Is_all_bits_zero@N@std@@YA_NAEBN@Z
	??$_Maklocstr@D@std@@YAPEADPEBDPEADAEBU_Cvtvec@@@Z
	??$_Maklocstr@_W@std@@YAPEA_WPEBDPEA_WAEBU_Cvtvec@@@Z
	??$_Pocma@V?$allocator@N@std@@@std@@YAXAEAV?$allocator@N@0@0@Z
	??$_Reallocate_grow_by@V<lambda_319d5e083f45f90dcdce5dce53cbb275>@@D@?$basic_string@DU?$char_traits@D@std@@V?$allocator@D@2@@std@@AEAAAEAV01@_KV<lambda_319d5e083f45f90dcdce5dce53cbb275>@@D@Z
	??$_Refancy@PEAN$0A@@std@@YAPEANPEAN@Z
	??$_Refancy@PEA_K$0A@@std@@YAPEA_KPEA_K@Z
	??$_Resize@U_Value_init_tag@std@@@?$vector@NV?$allocator@N@std@@@std@@AEAAX_KAEBU_Value_init_tag@1@@Z
	??$_Resize_reallocate@U_Value_init_tag@std@@@?$vector@NV?$allocator@N@std@@@std@@AEAAX_KAEBU_Value_init_tag@1@@Z
	??$_Seek_wrapped@V?$_Vector_iterator@V?$_Vector_val@U?$_Simple_types@N@std@@@std@@@std@@AEAPEAN@std@@YAXAEAV?$_Vector_iterator@V?$_Vector_val@U?$_Simple_types@N@std@@@std@@@0@AEAPEAN@Z
	??$_Seek_wrapped@V?$_Vector_iterator@V?$_Vector_val@U?$_Simple_types@N@std@@@std@@@std@@PEAN@std@@YAXAEAV?$_Vector_iterator@V?$_Vector_val@U?$_Simple_types@N@std@@@std@@@0@$$QEAPEAN@Z
	??$_Seek_wrapped@V?$_Vector_iterator@V?$_Vector_val@U?$_Simple_types@_K@std@@@std@@@std@@PEA_K@std@@YAXAEAV?$_Vector_iterator@V?$_Vector_val@U?$_Simple_types@_K@std@@@std@@@0@$$QEAPEA_K@Z
	??$_To_address@PEAN@std@@YA?A_PAEBQEAN@Z
	??$_To_address@PEAVNode@pipenetwork@cie@@@std@@YA?A_PAEBQEAVNode@pipenetwork@cie@@@Z
	??$_To_address@PEAVTube@pipenetwork@cie@@@std@@YA?A_PAEBQEAVTube@pipenetwork@cie@@@Z
	??$_To_address@PEA_K@std@@YA?A_PAEBQEA_K@Z
	??$_To_address@PEBN@std@@YA?A_PAEBQEBN@Z
	??$_Unfancy@D@std@@YAPEADPEAD@Z
	??$_Unfancy@N@std@@YAPEANPEAN@Z
	??$_Unfancy@U_Container_proxy@std@@@std@@YAPEAU_Container_proxy@0@PEAU10@@Z
	??$_Unfancy@VNode@pipenetwork@cie@@@std@@YAPEAVNode@pipenetwork@cie@@PEAV123@@Z
	??$_Unfancy@VTube@pipenetwork@cie@@@std@@YAPEAVTube@pipenetwork@cie@@PEAV123@@Z
	??$_Unfancy@_K@std@@YAPEA_KPEA_K@Z
	??$_Ungetc@D@std@@YA_NAEBDPEAU_iobuf@@@Z
	??$_Uninitialized_copy@PEANPEANV?$allocator@N@std@@@std@@YAPEANPEAN00AEAV?$allocator@N@0@@Z
	??$_Uninitialized_fill_n@V?$allocator@N@std@@@std@@YAPEANPEAN_KAEBNAEAV?$allocator@N@0@@Z
	??$_Uninitialized_move@PEANV?$allocator@N@std@@@std@@YAPEANQEAN0PEANAEAV?$allocator@N@0@@Z
	??$_Uninitialized_move@PEAVNode@pipenetwork@cie@@V?$allocator@VNode@pipenetwork@cie@@@std@@@std@@YAPEAVNode@pipenetwork@cie@@QEAV123@0PEAV123@AEAV?$allocator@VNode@pipenetwork@cie@@@0@@Z
	??$_Uninitialized_move@PEAVTube@pipenetwork@cie@@V?$allocator@VTube@pipenetwork@cie@@@std@@@std@@YAPEAVTube@pipenetwork@cie@@QEAV123@0PEAV123@AEAV?$allocator@VTube@pipenetwork@cie@@@0@@Z
	??$_Uninitialized_value_construct_n@V?$allocator@N@std@@@std@@YAPEANPEAN_KAEAV?$allocator@N@0@@Z
	??$_Uninitialized_value_construct_n@V?$allocator@_K@std@@@std@@YAPEA_KPEA_K_KAEAV?$allocator@_K@0@@Z
	??$_Voidify_iter@PEAN@std@@YAPEAXPEAN@Z
	??$_Voidify_iter@PEAPEAD@std@@YAPEAXPEAPEAD@Z
	??$_Voidify_iter@PEAU_Container_proxy@std@@@std@@YAPEAXPEAU_Container_proxy@0@@Z
	??$_Voidify_iter@PEAVNode@pipenetwork@cie@@@std@@YAPEAXPEAVNode@pipenetwork@cie@@@Z
	??$_Voidify_iter@PEAVTube@pipenetwork@cie@@@std@@YAPEAXPEAVTube@pipenetwork@cie@@@Z
	??$_Voidify_iter@PEA_K@std@@YAPEAXPEA_K@Z
	??$_Zero_range@PEAN@std@@YAPEANQEAN0@Z
	??$_Zero_range@PEA_K@std@@YAPEA_KQEA_K0@Z
	??$addressof@$$CBV?$_Vector_val@U?$_Simple_types@N@std@@@std@@@std@@YAPEBV?$_Vector_val@U?$_Simple_types@N@std@@@0@AEBV10@@Z
	??$addressof@$$CBV?$codecvt@DDU_Mbstatet@@@std@@@std@@YAPEBV?$codecvt@DDU_Mbstatet@@@0@AEBV10@@Z
	??$addressof@N@std@@YAPEANAEAN@Z
	??$addressof@PEAD@std@@YAPEAPEADAEAPEAD@Z
	??$addressof@U_Container_base12@std@@@std@@YAPEAU_Container_base12@0@AEAU10@@Z
	??$addressof@U_Container_proxy@std@@@std@@YAPEAU_Container_proxy@0@AEAU10@@Z
	??$addressof@V?$_Vector_val@U?$_Simple_types@N@std@@@std@@@std@@YAPEAV?$_Vector_val@U?$_Simple_types@N@std@@@0@AEAV10@@Z
	??$addressof@V?$_Vector_val@U?$_Simple_types@_K@std@@@std@@@std@@YAPEAV?$_Vector_val@U?$_Simple_types@_K@std@@@0@AEAV10@@Z
	??$addressof@V?$basic_filebuf@DU?$char_traits@D@std@@@std@@@std@@YAPEAV?$basic_filebuf@DU?$char_traits@D@std@@@0@AEAV10@@Z
	??$addressof@V?$vector@NV?$allocator@N@std@@@std@@@std@@YAPEAV?$vector@NV?$allocator@N@std@@@0@AEAV10@@Z
	??$addressof@VNode@pipenetwork@cie@@@std@@YAPEAVNode@pipenetwork@cie@@AEAV123@@Z
	??$addressof@VTube@pipenetwork@cie@@@std@@YAPEAVTube@pipenetwork@cie@@AEAV123@@Z
	??$begin@V?$vector@NV?$allocator@N@std@@@std@@@std@@YA?AV?$_Vector_const_iterator@V?$_Vector_val@U?$_Simple_types@N@std@@@std@@@0@AEBV?$vector@NV?$allocator@N@std@@@0@@Z
	??$construct@N$$V@?$_Default_allocator_traits@V?$allocator@N@std@@@std@@SAXAEAV?$allocator@N@1@QEAN@Z
	??$construct@NAEAN@?$_Default_allocator_traits@V?$allocator@N@std@@@std@@SAXAEAV?$allocator@N@1@QEANAEAN@Z
	??$construct@NAEBN@?$_Default_allocator_traits@V?$allocator@N@std@@@std@@SAXAEAV?$allocator@N@1@QEANAEBN@Z
	??$construct@NN@?$_Default_allocator_traits@V?$allocator@N@std@@@std@@SAXAEAV?$allocator@N@1@QEAN$$QEAN@Z
	??$construct@VNode@pipenetwork@cie@@V123@@?$_Default_allocator_traits@V?$allocator@VNode@pipenetwork@cie@@@std@@@std@@SAXAEAV?$allocator@VNode@pipenetwork@cie@@@1@QEAVNode@pipenetwork@cie@@$$QEAV345@@Z
	??$construct@VTube@pipenetwork@cie@@V123@@?$_Default_allocator_traits@V?$allocator@VTube@pipenetwork@cie@@@std@@@std@@SAXAEAV?$allocator@VTube@pipenetwork@cie@@@1@QEAVTube@pipenetwork@cie@@$$QEAV345@@Z
	??$construct@_K$$V@?$_Default_allocator_traits@V?$allocator@_K@std@@@std@@SAXAEAV?$allocator@_K@1@QEA_K@Z
	??$copy@V?$_Vector_const_iterator@V?$_Vector_val@U?$_Simple_types@N@std@@@std@@@std@@V?$_Vector_iterator@V?$_Vector_val@U?$_Simple_types@N@std@@@std@@@2@@std@@YA?AV?$_Vector_iterator@V?$_Vector_val@U?$_Simple_types@N@std@@@std@@@0@V?$_Vector_const_iterator@V?$_Vector_val@U?$_Simple_types@N@std@@@std@@@0@0V10@@Z
	??$end@V?$vector@NV?$allocator@N@std@@@std@@@std@@YA?AV?$_Vector_const_iterator@V?$_Vector_val@U?$_Simple_types@N@std@@@std@@@0@AEBV?$vector@NV?$allocator@N@std@@@0@@Z
	??$endl@DU?$char_traits@D@std@@@std@@YAAEAV?$basic_ostream@DU?$char_traits@D@std@@@0@AEAV10@@Z
	??$exchange@PEAN$$T@std@@YAPEANAEAPEAN$$QEA$$T@Z
	??$exchange@PEAU_Container_proxy@std@@$$T@std@@YAPEAU_Container_proxy@0@AEAPEAU10@$$QEA$$T@Z
	??$exchange@PEAU_Iterator_base12@std@@$$T@std@@YAPEAU_Iterator_base12@0@AEAPEAU10@$$QEA$$T@Z
	??$exchange@PEAV_Facet_base@std@@$$T@std@@YAPEAV_Facet_base@0@AEAPEAV10@$$QEA$$T@Z
	??$fill@V?$_Vector_iterator@V?$_Vector_val@U?$_Simple_types@N@std@@@std@@@std@@N@std@@YAXV?$_Vector_iterator@V?$_Vector_val@U?$_Simple_types@N@std@@@std@@@0@0AEBN@Z
	??$forward@AEAN@std@@YAAEANAEAN@Z
	??$forward@AEAPEAN@std@@YAAEAPEANAEAPEAN@Z
	??$forward@AEAPEAV_Facet_base@std@@@std@@YAAEAPEAV_Facet_base@0@AEAPEAV10@@Z
	??$forward@AEA_K@std@@YAAEA_KAEA_K@Z
	??$forward@AEBN@std@@YAAEBNAEBN@Z
	??$forward@AEBQEAD@std@@YAAEBQEADAEBQEAD@Z
	??$forward@AEBQEAN@std@@YAAEBQEANAEBQEAN@Z
	??$forward@AEBV?$allocator@N@std@@@std@@YAAEBV?$allocator@N@0@AEBV10@@Z
	??$forward@AEBV?$allocator@_K@std@@@std@@YAAEBV?$allocator@_K@0@AEBV10@@Z
	??$forward@N@std@@YA$$QEANAEAN@Z
	??$forward@PEAN@std@@YA$$QEAPEANAEAPEAN@Z
	??$forward@PEAU_Container_base12@std@@@std@@YA$$QEAPEAU_Container_base12@0@AEAPEAU10@@Z
	??$forward@PEA_K@std@@YA$$QEAPEA_KAEAPEA_K@Z
	??$forward@V?$allocator@N@std@@@std@@YA$$QEAV?$allocator@N@0@AEAV10@@Z
	??$forward@VNode@pipenetwork@cie@@@std@@YA$$QEAVNode@pipenetwork@cie@@AEAV123@@Z
	??$forward@VTube@pipenetwork@cie@@@std@@YA$$QEAVTube@pipenetwork@cie@@AEAV123@@Z
	??$inner_product@V?$_Vector_const_iterator@V?$_Vector_val@U?$_Simple_types@N@std@@@std@@@std@@V12@N@std@@YANV?$_Vector_const_iterator@V?$_Vector_val@U?$_Simple_types@N@std@@@std@@@0@00N@Z
	??$inner_product@V?$_Vector_const_iterator@V?$_Vector_val@U?$_Simple_types@N@std@@@std@@@std@@V12@NU?$plus@X@2@U?$multiplies@X@2@@std@@YANV?$_Vector_const_iterator@V?$_Vector_val@U?$_Simple_types@N@std@@@std@@@0@00NU?$plus@X@0@U?$multiplies@X@0@@Z
	??$iota@V?$_Vector_iterator@V?$_Vector_val@U?$_Simple_types@_K@std@@@std@@@std@@H@std@@YAXV?$_Vector_iterator@V?$_Vector_val@U?$_Simple_types@_K@std@@@std@@@0@0H@Z
	??$iter_swap@V?$_Vector_iterator@V?$_Vector_val@U?$_Simple_types@_K@std@@@std@@@std@@V12@@std@@YAXV?$_Vector_iterator@V?$_Vector_val@U?$_Simple_types@_K@std@@@std@@@0@0@Z
	??$max@_K@std@@YAAEB_KAEB_K0@Z
	??$min@_K@std@@YAAEB_KAEB_K0@Z
	??$move@AEAN@std@@YA$$QEANAEAN@Z
	??$move@AEAPEAN@std@@YA$$QEAPEANAEAPEAN@Z
	??$move@AEAV?$allocator@N@std@@@std@@YA$$QEAV?$allocator@N@0@AEAV10@@Z
	??$move@AEAVNode@pipenetwork@cie@@@std@@YA$$QEAVNode@pipenetwork@cie@@AEAV123@@Z
	??$move@AEAVTube@pipenetwork@cie@@@std@@YA$$QEAVTube@pipenetwork@cie@@AEAV123@@Z
	??$move@AEA_K@std@@YA$$QEA_KAEA_K@Z
	??$swap@_K$0A@@std@@YAXAEA_K0@Z
	??$use_facet@V?$codecvt@DDU_Mbstatet@@@std@@@std@@YAAEBV?$codecvt@DDU_Mbstatet@@@0@AEBVlocale@0@@Z
	??0?$_Container_proxy_ptr12@V?$allocator@U_Container_proxy@std@@@std@@@std@@QEAA@AEAV?$allocator@U_Container_proxy@std@@@1@AEAU_Container_base12@1@@Z
	??0?$_String_val@U?$_Simple_types@D@std@@@std@@QEAA@XZ
	??0?$_Uninitialized_backout_al@V?$allocator@N@std@@@std@@QEAA@PEANAEAV?$allocator@N@1@@Z
	??0?$_Uninitialized_backout_al@V?$allocator@VNode@pipenetwork@cie@@@std@@@std@@QEAA@PEAVNode@pipenetwork@cie@@AEAV?$allocator@VNode@pipenetwork@cie@@@1@@Z
	??0?$_Uninitialized_backout_al@V?$allocator@VTube@pipenetwork@cie@@@std@@@std@@QEAA@PEAVTube@pipenetwork@cie@@AEAV?$allocator@VTube@pipenetwork@cie@@@1@@Z
	??0?$_Uninitialized_backout_al@V?$allocator@_K@std@@@std@@QEAA@PEA_KAEAV?$allocator@_K@1@@Z
	??0?$_Vector_const_iterator@V?$_Vector_val@U?$_Simple_types@N@std@@@std@@@std@@QEAA@$$QEAV01@@Z
	??0?$_Vector_const_iterator@V?$_Vector_val@U?$_Simple_types@N@std@@@std@@@std@@QEAA@AEBV01@@Z
	??0?$_Vector_const_iterator@V?$_Vector_val@U?$_Simple_types@N@std@@@std@@@std@@QEAA@PEANPEBU_Container_base12@1@@Z
	??0?$_Vector_const_iterator@V?$_Vector_val@U?$_Simple_types@_K@std@@@std@@@std@@QEAA@$$QEAV01@@Z
	??0?$_Vector_const_iterator@V?$_Vector_val@U?$_Simple_types@_K@std@@@std@@@std@@QEAA@AEBV01@@Z
	??0?$_Vector_const_iterator@V?$_Vector_val@U?$_Simple_types@_K@std@@@std@@@std@@QEAA@PEA_KPEBU_Container_base12@1@@Z
	??0?$_Vector_iterator@V?$_Vector_val@U?$_Simple_types@N@std@@@std@@@std@@QEAA@$$QEAV01@@Z
	??0?$_Vector_iterator@V?$_Vector_val@U?$_Simple_types@N@std@@@std@@@std@@QEAA@AEBV01@@Z
	??0?$_Vector_iterator@V?$_Vector_val@U?$_Simple_types@N@std@@@std@@@std@@QEAA@PEANPEBU_Container_base12@1@@Z
	??0?$_Vector_iterator@V?$_Vector_val@U?$_Simple_types@_K@std@@@std@@@std@@QEAA@$$QEAV01@@Z
	??0?$_Vector_iterator@V?$_Vector_val@U?$_Simple_types@_K@std@@@std@@@std@@QEAA@AEBV01@@Z
	??0?$_Vector_iterator@V?$_Vector_val@U?$_Simple_types@_K@std@@@std@@@std@@QEAA@PEA_KPEBU_Container_base12@1@@Z
	??0?$_Vector_val@U?$_Simple_types@N@std@@@std@@QEAA@PEAN00@Z
	??0?$_Vector_val@U?$_Simple_types@N@std@@@std@@QEAA@XZ
	??0?$_Vector_val@U?$_Simple_types@VNode@pipenetwork@cie@@@std@@@std@@QEAA@XZ
	??0?$_Vector_val@U?$_Simple_types@VTube@pipenetwork@cie@@@std@@@std@@QEAA@XZ
	??0?$_Vector_val@U?$_Simple_types@_K@std@@@std@@QEAA@XZ
	??0?$allocator@D@std@@QEAA@XZ
	??0?$allocator@N@std@@QEAA@XZ
	??0?$allocator@VNode@pipenetwork@cie@@@std@@QEAA@XZ
	??0?$allocator@VTube@pipenetwork@cie@@@std@@QEAA@XZ
	??0?$allocator@_K@std@@QEAA@XZ
	??0?$basic_filebuf@DU?$char_traits@D@std@@@std@@QEAA@XZ
	??0?$basic_ifstream@DU?$char_traits@D@std@@@std@@QEAA@AEBV?$basic_string@DU?$char_traits@D@std@@V?$allocator@D@2@@1@HH@Z
	??0?$basic_ifstream@DU?$char_traits@D@std@@@std@@QEAA@PEBDHH@Z
	??0?$basic_string@DU?$char_traits@D@std@@V?$allocator@D@2@@std@@QEAA@XZ
	??0?$fpos@U_Mbstatet@@@std@@QEAA@U_Mbstatet@@_J@Z
	??0?$fpos@U_Mbstatet@@@std@@QEAA@_J@Z
	??0?$vector@NV?$allocator@N@std@@@std@@QEAA@$$QEAV01@@Z
	??0?$vector@NV?$allocator@N@std@@@std@@QEAA@AEBV01@@Z
	??0?$vector@NV?$allocator@N@std@@@std@@QEAA@XZ
	??0?$vector@NV?$allocator@N@std@@@std@@QEAA@_KAEBNAEBV?$allocator@N@1@@Z
	??0?$vector@NV?$allocator@N@std@@@std@@QEAA@_KAEBV?$allocator@N@1@@Z
	??0?$vector@VNode@pipenetwork@cie@@V?$allocator@VNode@pipenetwork@cie@@@std@@@std@@QEAA@XZ
	??0?$vector@VTube@pipenetwork@cie@@V?$allocator@VTube@pipenetwork@cie@@@std@@@std@@QEAA@XZ
	??0?$vector@_KV?$allocator@_K@std@@@std@@QEAA@_KAEBV?$allocator@_K@1@@Z
	??0Matrix@linalg@cie@@QEAA@AEBV012@@Z
	??0Matrix@linalg@cie@@QEAA@AEBV?$vector@NV?$allocator@N@std@@@std@@_K@Z
	??0Matrix@linalg@cie@@QEAA@AEBV?$vector@V?$vector@NV?$allocator@N@std@@@std@@V?$allocator@V?$vector@NV?$allocator@N@std@@@std@@@2@@std@@@Z
	??0Matrix@linalg@cie@@QEAA@XZ
	??0Matrix@linalg@cie@@QEAA@_K0@Z
	??0Matrix@linalg@cie@@QEAA@_K0N@Z
	??0Node@pipenetwork@cie@@QEAA@NNNH@Z
	??0PipeNetwork@pipenetwork@cie@@QEAA@V?$basic_string@DU?$char_traits@D@std@@V?$allocator@D@2@@std@@@Z
	??0Tube@pipenetwork@cie@@QEAA@PEAVNode@12@0N@Z
	??0_Basic_container_proxy_ptr12@std@@IEAA@XZ
	??0_Bxty@?$_String_val@U?$_Simple_types@D@std@@@std@@QEAA@XZ
	??0_Container_base12@std@@QEAA@XZ
	??0_Container_proxy@std@@QEAA@PEAU_Container_base12@1@@Z
	??0_Iterator_base12@std@@QEAA@AEBU01@@Z
	??0_Iterator_base12@std@@QEAA@XZ
	??0_Sentry_base@?$basic_ostream@DU?$char_traits@D@std@@@std@@QEAA@AEAV12@@Z
	??0bad_alloc@std@@AEAA@QEBD@Z
	??0bad_alloc@std@@QEAA@AEBV01@@Z
	??0bad_array_new_length@std@@QEAA@AEBV01@@Z
	??0bad_array_new_length@std@@QEAA@XZ
	??0bad_cast@std@@QEAA@AEBV01@@Z
	??0bad_cast@std@@QEAA@XZ
	??0exception@std@@QEAA@AEBV01@@Z
	??0exception@std@@QEAA@QEBD@Z
	??0exception@std@@QEAA@QEBDH@Z
	??0runtime_error@std@@QEAA@AEBV01@@Z
	??0runtime_error@std@@QEAA@PEBD@Z
	??0sentry@?$basic_ostream@DU?$char_traits@D@std@@@std@@QEAA@AEAV12@@Z
	??1?$_Compressed_pair@V?$allocator@D@std@@V?$_String_val@U?$_Simple_types@D@std@@@2@$00@std@@QEAA@XZ
	??1?$_Container_proxy_ptr12@V?$allocator@U_Container_proxy@std@@@std@@@std@@QEAA@XZ
	??1?$_String_val@U?$_Simple_types@D@std@@@std@@QEAA@XZ
	??1?$_Tidy_guard@V?$vector@NV?$allocator@N@std@@@std@@@std@@QEAA@XZ
	??1?$_Tidy_guard@V?$vector@_KV?$allocator@_K@std@@@std@@@std@@QEAA@XZ
	??1?$_Uninitialized_backout_al@V?$allocator@N@std@@@std@@QEAA@XZ
	??1?$_Uninitialized_backout_al@V?$allocator@VNode@pipenetwork@cie@@@std@@@std@@QEAA@XZ
	??1?$_Uninitialized_backout_al@V?$allocator@VTube@pipenetwork@cie@@@std@@@std@@QEAA@XZ
	??1?$_Uninitialized_backout_al@V?$allocator@_K@std@@@std@@QEAA@XZ
	??1?$_Vector_const_iterator@V?$_Vector_val@U?$_Simple_types@N@std@@@std@@@std@@QEAA@XZ
	??1?$_Vector_const_iterator@V?$_Vector_val@U?$_Simple_types@_K@std@@@std@@@std@@QEAA@XZ
	??1?$_Vector_iterator@V?$_Vector_val@U?$_Simple_types@N@std@@@std@@@std@@QEAA@XZ
	??1?$_Vector_iterator@V?$_Vector_val@U?$_Simple_types@_K@std@@@std@@@std@@QEAA@XZ
	??1?$basic_filebuf@DU?$char_traits@D@std@@@std@@UEAA@XZ
	??1?$basic_ifstream@DU?$char_traits@D@std@@@std@@UEAA@XZ
	??1?$basic_string@DU?$char_traits@D@std@@V?$allocator@D@2@@std@@QEAA@XZ
	??1?$unique_ptr@V_Facet_base@std@@U?$default_delete@V_Facet_base@std@@@2@@std@@QEAA@XZ
	??1?$vector@NV?$allocator@N@std@@@std@@QEAA@XZ
	??1?$vector@VNode@pipenetwork@cie@@V?$allocator@VNode@pipenetwork@cie@@@std@@@std@@QEAA@XZ
	??1?$vector@VTube@pipenetwork@cie@@V?$allocator@VTube@pipenetwork@cie@@@std@@@std@@QEAA@XZ
	??1?$vector@_KV?$allocator@_K@std@@@std@@QEAA@XZ
	??1Matrix@linalg@cie@@QEAA@XZ
	??1_Bxty@?$_String_val@U?$_Simple_types@D@std@@@std@@QEAA@XZ
	??1_Iterator_base12@std@@QEAA@XZ
	??1_Sentry_base@?$basic_ostream@DU?$char_traits@D@std@@@std@@QEAA@XZ
	??1bad_alloc@std@@UEAA@XZ
	??1bad_array_new_length@std@@UEAA@XZ
	??1bad_cast@std@@UEAA@XZ
	??1exception@std@@UEAA@XZ
	??1locale@std@@QEAA@XZ
	??1runtime_error@std@@UEAA@XZ
	??1sentry@?$basic_ostream@DU?$char_traits@D@std@@@std@@QEAA@XZ
	??2@YAPEAX_KPEAX@Z
	??4?$vector@NV?$allocator@N@std@@@std@@QEAAAEAV01@$$QEAV01@@Z
	??4_Iterator_base12@std@@QEAAAEAU01@AEBU01@@Z
	??A?$vector@NV?$allocator@N@std@@@std@@QEAAAEAN_K@Z
	??A?$vector@NV?$allocator@N@std@@@std@@QEBAAEBN_K@Z
	??A?$vector@V?$vector@NV?$allocator@N@std@@@std@@V?$allocator@V?$vector@NV?$allocator@N@std@@@std@@@2@@std@@QEBAAEBV?$vector@NV?$allocator@N@std@@@1@_K@Z
	??A?$vector@VNode@pipenetwork@cie@@V?$allocator@VNode@pipenetwork@cie@@@std@@@std@@QEAAAEAVNode@pipenetwork@cie@@_K@Z
	??A?$vector@VNode@pipenetwork@cie@@V?$allocator@VNode@pipenetwork@cie@@@std@@@std@@QEBAAEBVNode@pipenetwork@cie@@_K@Z
	??A?$vector@VTube@pipenetwork@cie@@V?$allocator@VTube@pipenetwork@cie@@@std@@@std@@QEBAAEBVTube@pipenetwork@cie@@_K@Z
	??A?$vector@_KV?$allocator@_K@std@@@std@@QEAAAEA_K_K@Z
	??B?$fpos@U_Mbstatet@@@std@@QEBA_JXZ
	??Bsentry@?$basic_ostream@DU?$char_traits@D@std@@@std@@QEBA_NXZ
	??D?$_Vector_const_iterator@V?$_Vector_val@U?$_Simple_types@_K@std@@@std@@@std@@QEBAAEB_KXZ
	??D?$_Vector_iterator@V?$_Vector_val@U?$_Simple_types@_K@std@@@std@@@std@@QEBAAEA_KXZ
	??H?$_Vector_iterator@V?$_Vector_val@U?$_Simple_types@N@std@@@std@@@std@@QEBA?AV01@_J@Z
	??H?$_Vector_iterator@V?$_Vector_val@U?$_Simple_types@_K@std@@@std@@@std@@QEBA?AV01@_J@Z
	??R<lambda_319d5e083f45f90dcdce5dce53cbb275>@@QEBA@QEADQEBD_KD@Z
	??R?$default_delete@V_Facet_base@std@@@std@@QEBAXPEAV_Facet_base@1@@Z
	??RMatrix@linalg@cie@@QEAAAEAN_K0@Z
	??RMatrix@linalg@cie@@QEBAN_K0@Z
	??Y?$_Vector_const_iterator@V?$_Vector_val@U?$_Simple_types@N@std@@@std@@@std@@QEAAAEAV01@_J@Z
	??Y?$_Vector_const_iterator@V?$_Vector_val@U?$_Simple_types@_K@std@@@std@@@std@@QEAAAEAV01@_J@Z
	??Y?$_Vector_iterator@V?$_Vector_val@U?$_Simple_types@N@std@@@std@@@std@@QEAAAEAV01@_J@Z
	??Y?$_Vector_iterator@V?$_Vector_val@U?$_Simple_types@_K@std@@@std@@@std@@QEAAAEAV01@_J@Z
	??_D?$basic_ifstream@DU?$char_traits@D@std@@@std@@QEAAXXZ
	?_Activate_SSO_buffer@?$_String_val@U?$_Simple_types@D@std@@@std@@QEAAXXZ
	?_Adjust_manually_vector_aligned@std@@YAXAEAPEAXAEA_K@Z
	?_Adopt@_Iterator_base12@std@@QEAAXPEBU_Container_base12@2@@Z
	?_Adopt_locked@_Iterator_base12@std@@AEAAXPEBU_Container_base12@2@@Z
	?_Adopt_unlocked@_Iterator_base12@std@@AEAAXPEBU_Container_base12@2@@Z
	?_Allocate@_Default_allocate_traits@std@@SAPEAX_K@Z
	?_Assign_locked@_Iterator_base12@std@@AEAAXAEBU12@@Z
	?_Assign_unlocked@_Iterator_base12@std@@AEAAXAEBU12@@Z
	?_Buy_nonzero@?$vector@NV?$allocator@N@std@@@std@@AEAAX_K@Z
	?_Buy_nonzero@?$vector@_KV?$allocator@_K@std@@@std@@AEAAX_K@Z
	?_Buy_raw@?$vector@NV?$allocator@N@std@@@std@@AEAAX_K@Z
	?_Buy_raw@?$vector@_KV?$allocator@_K@std@@@std@@AEAAX_K@Z
	?_Calculate_growth@?$basic_string@DU?$char_traits@D@std@@V?$allocator@D@2@@std@@AEBA_K_K@Z
	?_Calculate_growth@?$basic_string@DU?$char_traits@D@std@@V?$allocator@D@2@@std@@CA_K_K00@Z
	?_Calculate_growth@?$vector@NV?$allocator@N@std@@@std@@AEBA_K_K@Z
	?_Calculate_growth@?$vector@VNode@pipenetwork@cie@@V?$allocator@VNode@pipenetwork@cie@@@std@@@std@@AEBA_K_K@Z
	?_Calculate_growth@?$vector@VTube@pipenetwork@cie@@V?$allocator@VTube@pipenetwork@cie@@@std@@@std@@AEBA_K_K@Z
	?_Change_array@?$vector@NV?$allocator@N@std@@@std@@AEAAXQEAN_K1@Z
	?_Change_array@?$vector@VNode@pipenetwork@cie@@V?$allocator@VNode@pipenetwork@cie@@@std@@@std@@AEAAXQEAVNode@pipenetwork@cie@@_K1@Z
	?_Change_array@?$vector@VTube@pipenetwork@cie@@V?$allocator@VTube@pipenetwork@cie@@@std@@@std@@AEAAXQEAVTube@pipenetwork@cie@@_K1@Z
	?_Check_offset@?$_String_val@U?$_Simple_types@D@std@@@std@@QEBAX_K@Z
	?_Clamp_suffix_size@?$_String_val@U?$_Simple_types@D@std@@@std@@QEBA_K_K0@Z
	?_Endwrite@?$basic_filebuf@DU?$char_traits@D@std@@@std@@IEAA_NXZ
	?_Erase_noexcept@?$basic_string@DU?$char_traits@D@std@@V?$allocator@D@2@@std@@AEAAAEAV12@_K_K@Z
	?_Get_first@?$_Compressed_pair@U?$default_delete@V_Facet_base@std@@@std@@PEAV_Facet_base@2@$00@std@@QEAAAEAU?$default_delete@V_Facet_base@std@@@2@XZ
	?_Get_first@?$_Compressed_pair@V?$allocator@D@std@@V?$_String_val@U?$_Simple_types@D@std@@@2@$00@std@@QEAAAEAV?$allocator@D@2@XZ
	?_Get_first@?$_Compressed_pair@V?$allocator@D@std@@V?$_String_val@U?$_Simple_types@D@std@@@2@$00@std@@QEBAAEBV?$allocator@D@2@XZ
	?_Get_first@?$_Compressed_pair@V?$allocator@N@std@@V?$_Vector_val@U?$_Simple_types@N@std@@@2@$00@std@@QEAAAEAV?$allocator@N@2@XZ
	?_Get_first@?$_Compressed_pair@V?$allocator@N@std@@V?$_Vector_val@U?$_Simple_types@N@std@@@2@$00@std@@QEBAAEBV?$allocator@N@2@XZ
	?_Get_first@?$_Compressed_pair@V?$allocator@VNode@pipenetwork@cie@@@std@@V?$_Vector_val@U?$_Simple_types@VNode@pipenetwork@cie@@@std@@@2@$00@std@@QEAAAEAV?$allocator@VNode@pipenetwork@cie@@@2@XZ
	?_Get_first@?$_Compressed_pair@V?$allocator@VNode@pipenetwork@cie@@@std@@V?$_Vector_val@U?$_Simple_types@VNode@pipenetwork@cie@@@std@@@2@$00@std@@QEBAAEBV?$allocator@VNode@pipenetwork@cie@@@2@XZ
	?_Get_first@?$_Compressed_pair@V?$allocator@VTube@pipenetwork@cie@@@std@@V?$_Vector_val@U?$_Simple_types@VTube@pipenetwork@cie@@@std@@@2@$00@std@@QEAAAEAV?$allocator@VTube@pipenetwork@cie@@@2@XZ
	?_Get_first@?$_Compressed_pair@V?$allocator@VTube@pipenetwork@cie@@@std@@V?$_Vector_val@U?$_Simple_types@VTube@pipenetwork@cie@@@std@@@2@$00@std@@QEBAAEBV?$allocator@VTube@pipenetwork@cie@@@2@XZ
	?_Get_first@?$_Compressed_pair@V?$allocator@_K@std@@V?$_Vector_val@U?$_Simple_types@_K@std@@@2@$00@std@@QEAAAEAV?$allocator@_K@2@XZ
	?_Get_first@?$_Compressed_pair@V?$allocator@_K@std@@V?$_Vector_val@U?$_Simple_types@_K@std@@@2@$00@std@@QEBAAEBV?$allocator@_K@2@XZ
	?_Getal@?$basic_string@DU?$char_traits@D@std@@V?$allocator@D@2@@std@@AEAAAEAV?$allocator@D@2@XZ
	?_Getal@?$basic_string@DU?$char_traits@D@std@@V?$allocator@D@2@@std@@AEBAAEBV?$allocator@D@2@XZ
	?_Getal@?$vector@NV?$allocator@N@std@@@std@@AEAAAEAV?$allocator@N@2@XZ
	?_Getal@?$vector@NV?$allocator@N@std@@@std@@AEBAAEBV?$allocator@N@2@XZ
	?_Getal@?$vector@VNode@pipenetwork@cie@@V?$allocator@VNode@pipenetwork@cie@@@std@@@std@@AEAAAEAV?$allocator@VNode@pipenetwork@cie@@@2@XZ
	?_Getal@?$vector@VNode@pipenetwork@cie@@V?$allocator@VNode@pipenetwork@cie@@@std@@@std@@AEBAAEBV?$allocator@VNode@pipenetwork@cie@@@2@XZ
	?_Getal@?$vector@VTube@pipenetwork@cie@@V?$allocator@VTube@pipenetwork@cie@@@std@@@std@@AEAAAEAV?$allocator@VTube@pipenetwork@cie@@@2@XZ
	?_Getal@?$vector@VTube@pipenetwork@cie@@V?$allocator@VTube@pipenetwork@cie@@@std@@@std@@AEBAAEBV?$allocator@VTube@pipenetwork@cie@@@2@XZ
	?_Getal@?$vector@_KV?$allocator@_K@std@@@std@@AEAAAEAV?$allocator@_K@2@XZ
	?_Getal@?$vector@_KV?$allocator@_K@std@@@std@@AEBAAEBV?$allocator@_K@2@XZ
	?_Getcont@_Iterator_base12@std@@QEBAPEBU_Container_base12@2@XZ
	?_Getfacet@locale@std@@QEBAPEBVfacet@12@_K@Z
	?_Init@?$basic_filebuf@DU?$char_traits@D@std@@@std@@IEAAXPEAU_iobuf@@W4_Initfl@12@@Z
	?_Initcvt@?$basic_filebuf@DU?$char_traits@D@std@@@std@@IEAAXAEBV?$codecvt@DDU_Mbstatet@@@2@@Z
	?_Large_string_engaged@?$_String_val@U?$_Simple_types@D@std@@@std@@QEBA_NXZ
	?_Lock@?$basic_filebuf@DU?$char_traits@D@std@@@std@@UEAAXXZ
	?_Maklocwcs@std@@YAPEA_WPEB_W@Z
	?_Myptr@?$_String_val@U?$_Simple_types@D@std@@@std@@QEAAPEADXZ
	?_Myptr@?$_String_val@U?$_Simple_types@D@std@@@std@@QEBAPEBDXZ
	?_Orphan_all@_Container_base12@std@@QEAAXXZ
	?_Orphan_all_locked_v3@_Container_base12@std@@AEAAXXZ
	?_Orphan_all_unlocked_v3@_Container_base12@std@@AEAAXXZ
	?_Orphan_me_locked_v3@_Iterator_base12@std@@AEAAXXZ
	?_Orphan_me_unlocked_v3@_Iterator_base12@std@@AEAAXXZ
	?_Orphan_range@?$vector@NV?$allocator@N@std@@@std@@AEBAXPEAN0@Z
	?_Orphan_range@?$vector@VNode@pipenetwork@cie@@V?$allocator@VNode@pipenetwork@cie@@@std@@@std@@AEBAXPEAVNode@pipenetwork@cie@@0@Z
	?_Orphan_range@?$vector@VTube@pipenetwork@cie@@V?$allocator@VTube@pipenetwork@cie@@@std@@@std@@AEBAXPEAVTube@pipenetwork@cie@@0@Z
	?_Orphan_range_locked@?$vector@NV?$allocator@N@std@@@std@@AEBAXPEAN0@Z
	?_Orphan_range_locked@?$vector@VNode@pipenetwork@cie@@V?$allocator@VNode@pipenetwork@cie@@@std@@@std@@AEBAXPEAVNode@pipenetwork@cie@@0@Z
	?_Orphan_range_locked@?$vector@VTube@pipenetwork@cie@@V?$allocator@VTube@pipenetwork@cie@@@std@@@std@@AEBAXPEAVTube@pipenetwork@cie@@0@Z
	?_Orphan_range_unlocked@?$vector@NV?$allocator@N@std@@@std@@AEBAXPEAN0@Z
	?_Orphan_range_unlocked@?$vector@VNode@pipenetwork@cie@@V?$allocator@VNode@pipenetwork@cie@@@std@@@std@@AEBAXPEAVNode@pipenetwork@cie@@0@Z
	?_Orphan_range_unlocked@?$vector@VTube@pipenetwork@cie@@V?$allocator@VTube@pipenetwork@cie@@@std@@@std@@AEBAXPEAVTube@pipenetwork@cie@@0@Z
	?_Reallocate_exactly@?$vector@VNode@pipenetwork@cie@@V?$allocator@VNode@pipenetwork@cie@@@std@@@std@@AEAAX_K@Z
	?_Reallocate_exactly@?$vector@VTube@pipenetwork@cie@@V?$allocator@VTube@pipenetwork@cie@@@std@@@std@@AEAAX_K@Z
	?_Release@?$_Uninitialized_backout_al@V?$allocator@N@std@@@std@@QEAAPEANXZ
	?_Release@?$_Uninitialized_backout_al@V?$allocator@VNode@pipenetwork@cie@@@std@@@std@@QEAAPEAVNode@pipenetwork@cie@@XZ
	?_Release@?$_Uninitialized_backout_al@V?$allocator@VTube@pipenetwork@cie@@@std@@@std@@QEAAPEAVTube@pipenetwork@cie@@XZ
	?_Release@?$_Uninitialized_backout_al@V?$allocator@_K@std@@@std@@QEAAPEA_KXZ
	?_Release@_Basic_container_proxy_ptr12@std@@QEAAXXZ
	?_Reset_back@?$basic_filebuf@DU?$char_traits@D@std@@@std@@AEAAXXZ
	?_Seek_to@?$_Vector_const_iterator@V?$_Vector_val@U?$_Simple_types@N@std@@@std@@@std@@QEAAXPEBN@Z
	?_Seek_to@?$_Vector_const_iterator@V?$_Vector_val@U?$_Simple_types@_K@std@@@std@@@std@@QEAAXPEB_K@Z
	?_Set_back@?$basic_filebuf@DU?$char_traits@D@std@@@std@@AEAAXXZ
	?_Swap_proxy_and_iterators@_Container_base12@std@@QEAAXAEAU12@@Z
	?_Swap_proxy_and_iterators_locked@_Container_base12@std@@AEAAXAEAU12@@Z
	?_Swap_proxy_and_iterators_unlocked@_Container_base12@std@@AEAAXAEAU12@@Z
	?_Take_contents@?$_Vector_val@U?$_Simple_types@N@std@@@std@@QEAAXAEAV12@@Z
	?_Throw_bad_array_new_length@std@@YAXXZ
	?_Throw_bad_cast@std@@YAXXZ
	?_Tidy@?$vector@NV?$allocator@N@std@@@std@@AEAAXXZ
	?_Tidy@?$vector@VNode@pipenetwork@cie@@V?$allocator@VNode@pipenetwork@cie@@@std@@@std@@AEAAXXZ
	?_Tidy@?$vector@VTube@pipenetwork@cie@@V?$allocator@VTube@pipenetwork@cie@@@std@@@std@@AEAAXXZ
	?_Tidy@?$vector@_KV?$allocator@_K@std@@@std@@AEAAXXZ
	?_Tidy_deallocate@?$basic_string@DU?$char_traits@D@std@@V?$allocator@D@2@@std@@AEAAXXZ
	?_Tidy_init@?$basic_string@DU?$char_traits@D@std@@V?$allocator@D@2@@std@@AEAAXXZ
	?_Unlock@?$basic_filebuf@DU?$char_traits@D@std@@@std@@UEAAXXZ
	?_Unwrapped@?$_Vector_const_iterator@V?$_Vector_val@U?$_Simple_types@N@std@@@std@@@std@@QEBAPEBNXZ
	?_Unwrapped@?$_Vector_iterator@V?$_Vector_val@U?$_Simple_types@N@std@@@std@@@std@@QEBAPEANXZ
	?_Unwrapped@?$_Vector_iterator@V?$_Vector_val@U?$_Simple_types@_K@std@@@std@@@std@@QEBAPEA_KXZ
	?_Verify_offset@?$_Vector_const_iterator@V?$_Vector_val@U?$_Simple_types@N@std@@@std@@@std@@QEBAX_J@Z
	?_Verify_offset@?$_Vector_const_iterator@V?$_Vector_val@U?$_Simple_types@_K@std@@@std@@@std@@QEBAX_J@Z
	?_Verify_range@std@@YAXAEBV?$_Vector_const_iterator@V?$_Vector_val@U?$_Simple_types@N@std@@@std@@@1@0@Z
	?_Verify_range@std@@YAXAEBV?$_Vector_const_iterator@V?$_Vector_val@U?$_Simple_types@_K@std@@@std@@@1@0@Z
	?_Xlen_string@std@@YAXXZ
	?_Xlength@?$vector@NV?$allocator@N@std@@@std@@CAXXZ
	?_Xlength@?$vector@VNode@pipenetwork@cie@@V?$allocator@VNode@pipenetwork@cie@@@std@@@std@@CAXXZ
	?_Xlength@?$vector@VTube@pipenetwork@cie@@V?$allocator@VTube@pipenetwork@cie@@@std@@@std@@CAXXZ
	?_Xlength@?$vector@_KV?$allocator@_K@std@@@std@@CAXXZ
	?_Xran@?$_String_val@U?$_Simple_types@D@std@@@std@@SAXXZ
	?__empty_global_delete@@YAXPEAX@Z
	?__empty_global_delete@@YAXPEAX_K@Z
	?abs@@YANN@Z
	?allocate@?$allocator@D@std@@QEAAPEAD_K@Z
	?allocate@?$allocator@N@std@@QEAAPEAN_K@Z
	?allocate@?$allocator@U_Container_proxy@std@@@std@@QEAAPEAU_Container_proxy@2@_K@Z
	?allocate@?$allocator@VNode@pipenetwork@cie@@@std@@QEAAPEAVNode@pipenetwork@cie@@_K@Z
	?allocate@?$allocator@VTube@pipenetwork@cie@@@std@@QEAAPEAVTube@pipenetwork@cie@@_K@Z
	?allocate@?$allocator@_K@std@@QEAAPEA_K_K@Z
	?assign@?$_Narrow_char_traits@DH@std@@SAXAEADAEBD@Z
	?begin@?$vector@NV?$allocator@N@std@@@std@@QEAA?AV?$_Vector_iterator@V?$_Vector_val@U?$_Simple_types@N@std@@@std@@@2@XZ
	?begin@?$vector@NV?$allocator@N@std@@@std@@QEBA?AV?$_Vector_const_iterator@V?$_Vector_val@U?$_Simple_types@N@std@@@std@@@2@XZ
	?begin@?$vector@_KV?$allocator@_K@std@@@std@@QEAA?AV?$_Vector_iterator@V?$_Vector_val@U?$_Simple_types@_K@std@@@std@@@2@XZ
	?c_str@?$basic_string@DU?$char_traits@D@std@@V?$allocator@D@2@@std@@QEBAPEBDXZ
	?capacity@?$vector@NV?$allocator@N@std@@@std@@QEBA_KXZ
	?capacity@?$vector@VNode@pipenetwork@cie@@V?$allocator@VNode@pipenetwork@cie@@@std@@@std@@QEBA_KXZ
	?capacity@?$vector@VTube@pipenetwork@cie@@V?$allocator@VTube@pipenetwork@cie@@@std@@@std@@QEBA_KXZ
	?close@?$basic_filebuf@DU?$char_traits@D@std@@@std@@QEAAPEAV12@XZ
	?computeFluxes@PipeNetwork@pipenetwork@cie@@QEBA?AV?$vector@NV?$allocator@N@std@@@std@@XZ
	?copy@?$_Char_traits@DH@std@@SAPEADQEADQEBD_K@Z
	?data@?$basic_string@DU?$char_traits@D@std@@V?$allocator@D@2@@std@@QEBAPEBDXZ
	?deallocate@?$_Default_allocator_traits@V?$allocator@U_Container_proxy@std@@@std@@@std@@SAXAEAV?$allocator@U_Container_proxy@std@@@2@QEAU_Container_proxy@2@_K@Z
	?deallocate@?$allocator@D@std@@QEAAXQEAD_K@Z
	?deallocate@?$allocator@N@std@@QEAAXQEAN_K@Z
	?deallocate@?$allocator@VNode@pipenetwork@cie@@@std@@QEAAXQEAVNode@pipenetwork@cie@@_K@Z
	?deallocate@?$allocator@VTube@pipenetwork@cie@@@std@@QEAAXQEAVTube@pipenetwork@cie@@_K@Z
	?deallocate@?$allocator@_K@std@@QEAAXQEA_K_K@Z
	?end@?$vector@NV?$allocator@N@std@@@std@@QEAA?AV?$_Vector_iterator@V?$_Vector_val@U?$_Simple_types@N@std@@@std@@@2@XZ
	?end@?$vector@NV?$allocator@N@std@@@std@@QEBA?AV?$_Vector_const_iterator@V?$_Vector_val@U?$_Simple_types@N@std@@@std@@@2@XZ
	?end@?$vector@_KV?$allocator@_K@std@@@std@@QEAA?AV?$_Vector_iterator@V?$_Vector_val@U?$_Simple_types@_K@std@@@std@@@2@XZ
	?eof@?$_Narrow_char_traits@DH@std@@SAHXZ
	?eq_int_type@?$_Narrow_char_traits@DH@std@@SA_NAEBH0@Z
	?erase@?$basic_string@DU?$char_traits@D@std@@V?$allocator@D@2@@std@@QEAAAEAV12@_K0@Z
	?fill@Matrix@linalg@cie@@QEAAXN@Z
	?flow@Node@pipenetwork@cie@@QEBANXZ
	?front@?$basic_string@DU?$char_traits@D@std@@V?$allocator@D@2@@std@@QEAAAEADXZ
	?front@?$vector@V?$vector@NV?$allocator@N@std@@@std@@V?$allocator@V?$vector@NV?$allocator@N@std@@@std@@@2@@std@@QEBAAEBV?$vector@NV?$allocator@N@std@@@2@XZ
	?id@Node@pipenetwork@cie@@QEBAHXZ
	?imbue@?$basic_filebuf@DU?$char_traits@D@std@@@std@@MEAAXAEBVlocale@2@@Z
	?length@?$_Narrow_char_traits@DH@std@@SA_KQEBD@Z
	?length@Tube@pipenetwork@cie@@QEBANXZ
	?max@?$numeric_limits@_J@std@@SA_JXZ
	?max_size@?$_Default_allocator_traits@V?$allocator@D@std@@@std@@SA_KAEBV?$allocator@D@2@@Z
	?max_size@?$_Default_allocator_traits@V?$allocator@N@std@@@std@@SA_KAEBV?$allocator@N@2@@Z
	?max_size@?$_Default_allocator_traits@V?$allocator@VNode@pipenetwork@cie@@@std@@@std@@SA_KAEBV?$allocator@VNode@pipenetwork@cie@@@2@@Z
	?max_size@?$_Default_allocator_traits@V?$allocator@VTube@pipenetwork@cie@@@std@@@std@@SA_KAEBV?$allocator@VTube@pipenetwork@cie@@@2@@Z
	?max_size@?$_Default_allocator_traits@V?$allocator@_K@std@@@std@@SA_KAEBV?$allocator@_K@2@@Z
	?max_size@?$basic_string@DU?$char_traits@D@std@@V?$allocator@D@2@@std@@QEBA_KXZ
	?max_size@?$vector@NV?$allocator@N@std@@@std@@QEBA_KXZ
	?max_size@?$vector@VNode@pipenetwork@cie@@V?$allocator@VNode@pipenetwork@cie@@@std@@@std@@QEBA_KXZ
	?max_size@?$vector@VTube@pipenetwork@cie@@V?$allocator@VTube@pipenetwork@cie@@@std@@@std@@QEBA_KXZ
	?max_size@?$vector@_KV?$allocator@_K@std@@@std@@QEBA_KXZ
	?move@?$_Char_traits@DH@std@@SAPEADQEADQEBD_K@Z
	?node1@Tube@pipenetwork@cie@@QEBAPEBVNode@23@XZ
	?node2@Tube@pipenetwork@cie@@QEBAPEBVNode@23@XZ
	?norm@linalg@cie@@YANAEBV?$vector@NV?$allocator@N@std@@@std@@@Z
	?norm@linalg@cie@@YANAEBVMatrix@12@@Z
	?not_eof@?$_Narrow_char_traits@DH@std@@SAHAEBH@Z
	?open@?$basic_filebuf@DU?$char_traits@D@std@@@std@@QEAAPEAV12@PEBDHH@Z
	?overflow@?$basic_filebuf@DU?$char_traits@D@std@@@std@@MEAAHH@Z
	?pbackfail@?$basic_filebuf@DU?$char_traits@D@std@@@std@@MEAAHH@Z
	?permeability@Tube@pipenetwork@cie@@QEBANXZ
	?push_back@?$basic_string@DU?$char_traits@D@std@@V?$allocator@D@2@@std@@QEAAXD@Z
	?push_back@?$vector@NV?$allocator@N@std@@@std@@QEAAXAEBN@Z
	?push_back@?$vector@VNode@pipenetwork@cie@@V?$allocator@VNode@pipenetwork@cie@@@std@@@std@@QEAAX$$QEAVNode@pipenetwork@cie@@@Z
	?push_back@?$vector@VTube@pipenetwork@cie@@V?$allocator@VTube@pipenetwork@cie@@@std@@@std@@QEAAX$$QEAVTube@pipenetwork@cie@@@Z
	?release@?$unique_ptr@V_Facet_base@std@@U?$default_delete@V_Facet_base@std@@@2@@std@@QEAAPEAV_Facet_base@2@XZ
	?reserve@?$vector@VNode@pipenetwork@cie@@V?$allocator@VNode@pipenetwork@cie@@@std@@@std@@QEAAX_K@Z
	?reserve@?$vector@VTube@pipenetwork@cie@@V?$allocator@VTube@pipenetwork@cie@@@std@@@std@@QEAAX_K@Z
	?resize@?$vector@NV?$allocator@N@std@@@std@@QEAAX_K@Z
	?runtime_check@linalghelper@linalg@cie@@YAX_NQEBD@Z
	?seekoff@?$basic_filebuf@DU?$char_traits@D@std@@@std@@MEAA?AV?$fpos@U_Mbstatet@@@2@_JHH@Z
	?seekpos@?$basic_filebuf@DU?$char_traits@D@std@@@std@@MEAA?AV?$fpos@U_Mbstatet@@@2@V32@H@Z
	?select_on_container_copy_construction@?$_Default_allocator_traits@V?$allocator@N@std@@@std@@SA?AV?$allocator@N@2@AEBV32@@Z
	?setbuf@?$basic_filebuf@DU?$char_traits@D@std@@@std@@MEAAPEAV?$basic_streambuf@DU?$char_traits@D@std@@@2@PEAD_J@Z
	?size1@Matrix@linalg@cie@@QEBA_KXZ
	?size2@Matrix@linalg@cie@@QEBA_KXZ
	?size@?$basic_string@DU?$char_traits@D@std@@V?$allocator@D@2@@std@@QEBA_KXZ
	?size@?$vector@NV?$allocator@N@std@@@std@@QEBA_KXZ
	?size@?$vector@V?$vector@NV?$allocator@N@std@@@std@@V?$allocator@V?$vector@NV?$allocator@N@std@@@std@@@2@@std@@QEBA_KXZ
	?size@?$vector@VNode@pipenetwork@cie@@V?$allocator@VNode@pipenetwork@cie@@@std@@@std@@QEBA_KXZ
	?size@?$vector@VTube@pipenetwork@cie@@V?$allocator@VTube@pipenetwork@cie@@@std@@@std@@QEBA_KXZ
	?solve@linalg@cie@@YA?AV?$vector@NV?$allocator@N@std@@@std@@AEBVMatrix@12@AEBV34@@Z
	?state@?$fpos@U_Mbstatet@@@std@@QEBA?AU_Mbstatet@@XZ
	?sync@?$basic_filebuf@DU?$char_traits@D@std@@@std@@MEAAHXZ
	?to_char_type@?$_Narrow_char_traits@DH@std@@SADAEBH@Z
	?to_int_type@?$_Narrow_char_traits@DH@std@@SAHAEBD@Z
	?uflow@?$basic_filebuf@DU?$char_traits@D@std@@@std@@MEAAHXZ
	?underflow@?$basic_filebuf@DU?$char_traits@D@std@@@std@@MEAAHXZ
	?updatePermutation@linalghelper@linalg@cie@@YAXAEBVMatrix@23@AEAV?$vector@_KV?$allocator@_K@std@@@std@@_KN@Z
	?what@exception@std@@UEBAPEBDXZ
	?write@linalg@cie@@YAXAEBV?$vector@NV?$allocator@N@std@@@std@@AEAV?$basic_ostream@DU?$char_traits@D@std@@@4@@Z
	?write@linalg@cie@@YAXAEBVMatrix@12@AEAV?$basic_ostream@DU?$char_traits@D@std@@@std@@@Z
	?x@Node@pipenetwork@cie@@QEBANXZ
	?xsgetn@?$basic_filebuf@DU?$char_traits@D@std@@@std@@MEAA_JPEAD_J@Z
	?xsputn@?$basic_filebuf@DU?$char_traits@D@std@@@std@@MEAA_JPEBD_J@Z
	?y@Node@pipenetwork@cie@@QEBANXZ
	wmemcpy
